target datalayout = "e-m:e-p270:32:32-p271:32:32-p272:64:64-i64:64-i128:128-f80:128-n8:16:32:64-S128"
target triple = "x86_64-pc-linux-gnu"

%struct.unit_names = type { ptr, i32, i32 }

; Function Attrs: nounwind uwtable
define internal i32 @_get_delta(ptr noundef %0, ptr noundef %1, ptr noundef %2) #0 {
  %4 = alloca i32, align 4
  %5 = alloca ptr, align 8
  %6 = alloca ptr, align 8
  %7 = alloca ptr, align 8
  %8 = alloca i32, align 4
  %9 = alloca i32, align 4
  %10 = alloca i64, align 8
  %11 = alloca i32, align 4
  %12 = alloca i32, align 4
  store ptr %0, ptr %5, align 8
  store ptr %1, ptr %6, align 8
  store ptr %2, ptr %7, align 8
  call void @llvm.lifetime.start.p0(i64 4, ptr %8) #7
  call void @llvm.lifetime.start.p0(i64 4, ptr %9) #7
  call void @llvm.lifetime.start.p0(i64 8, ptr %10) #7
  store i64 0, ptr %10, align 8
  call void @llvm.lifetime.start.p0(i64 4, ptr %11) #7
  store i32 0, ptr %11, align 4
  %13 = load ptr, ptr %6, align 8
  %14 = load i32, ptr %13, align 4
  %15 = add nsw i32 %14, 1
  store i32 %15, ptr %9, align 4
  br label %16

16:                                               ; preds = %135, %3
  %17 = load ptr, ptr %5, align 8
  %18 = load i32, ptr %9, align 4
  %19 = sext i32 %18 to i64
  %20 = getelementptr inbounds i8, ptr %17, i64 %19
  %21 = load i8, ptr %20, align 1
  %22 = sext i8 %21 to i32
  %23 = icmp ne i32 %22, 0
  br i1 %23, label %24, label %32

24:                                               ; preds = %16
  %25 = load ptr, ptr %5, align 8
  %26 = load i32, ptr %9, align 4
  %27 = sext i32 %26 to i64
  %28 = getelementptr inbounds i8, ptr %25, i64 %27
  %29 = load i8, ptr %28, align 1
  %30 = sext i8 %29 to i32
  %31 = icmp ne i32 %30, 10
  br label %32

32:                                               ; preds = %24, %16
  %33 = phi i1 [ false, %16 ], [ %31, %24 ]
  br i1 %33, label %34, label %138

34:                                               ; preds = %32
  %35 = call ptr @__ctype_b_loc() #8
  %36 = load ptr, ptr %35, align 8
  %37 = load ptr, ptr %5, align 8
  %38 = load i32, ptr %9, align 4
  %39 = sext i32 %38 to i64
  %40 = getelementptr inbounds i8, ptr %37, i64 %39
  %41 = load i8, ptr %40, align 1
  %42 = sext i8 %41 to i32
  %43 = sext i32 %42 to i64
  %44 = getelementptr inbounds i16, ptr %36, i64 %43
  %45 = load i16, ptr %44, align 2
  %46 = zext i16 %45 to i32
  %47 = and i32 %46, 8192
  %48 = icmp ne i32 %47, 0
  br i1 %48, label %49, label %50

49:                                               ; preds = %34
  br label %135

50:                                               ; preds = %34
  store i32 0, ptr %8, align 4
  br label %51

51:                                               ; preds = %93, %50
  %52 = load i32, ptr %8, align 4
  %53 = sext i32 %52 to i64
  %54 = getelementptr inbounds [11 x %struct.unit_names], ptr @un, i64 0, i64 %53
  %55 = getelementptr inbounds nuw %struct.unit_names, ptr %54, i32 0, i32 0
  %56 = load ptr, ptr %55, align 16
  %57 = icmp ne ptr %56, null
  br i1 %57, label %58, label %96

58:                                               ; preds = %51
  %59 = load ptr, ptr %5, align 8
  %60 = load i32, ptr %9, align 4
  %61 = sext i32 %60 to i64
  %62 = getelementptr inbounds i8, ptr %59, i64 %61
  %63 = load i32, ptr %8, align 4
  %64 = sext i32 %63 to i64
  %65 = getelementptr inbounds [11 x %struct.unit_names], ptr @un, i64 0, i64 %64
  %66 = getelementptr inbounds nuw %struct.unit_names, ptr %65, i32 0, i32 0
  %67 = load ptr, ptr %66, align 16
  %68 = load i32, ptr %8, align 4
  %69 = sext i32 %68 to i64
  %70 = getelementptr inbounds [11 x %struct.unit_names], ptr @un, i64 0, i64 %69
  %71 = getelementptr inbounds nuw %struct.unit_names, ptr %70, i32 0, i32 1
  %72 = load i32, ptr %71, align 8
  %73 = sext i32 %72 to i64
  %74 = call i32 @xstrncasecmp(ptr noundef %62, ptr noundef %67, i64 noundef %73)
  %75 = icmp ne i32 %74, 0
  br i1 %75, label %92, label %76

76:                                               ; preds = %58
  %77 = load i32, ptr %8, align 4
  %78 = sext i32 %77 to i64
  %79 = getelementptr inbounds [11 x %struct.unit_names], ptr @un, i64 0, i64 %78
  %80 = getelementptr inbounds nuw %struct.unit_names, ptr %79, i32 0, i32 1
  %81 = load i32, ptr %80, align 8
  %82 = load i32, ptr %9, align 4
  %83 = add nsw i32 %82, %81
  store i32 %83, ptr %9, align 4
  %84 = load i32, ptr %8, align 4
  %85 = sext i32 %84 to i64
  %86 = getelementptr inbounds [11 x %struct.unit_names], ptr @un, i64 0, i64 %85
  %87 = getelementptr inbounds nuw %struct.unit_names, ptr %86, i32 0, i32 2
  %88 = load i32, ptr %87, align 4
  %89 = sext i32 %88 to i64
  %90 = load i64, ptr %10, align 8
  %91 = mul nsw i64 %90, %89
  store i64 %91, ptr %10, align 8
  br label %96

92:                                               ; preds = %58
  br label %93

93:                                               ; preds = %92
  %94 = load i32, ptr %8, align 4
  %95 = add nsw i32 %94, 1
  store i32 %95, ptr %8, align 4
  br label %51, !llvm.loop !12

96:                                               ; preds = %76, %51
  %97 = load i32, ptr %8, align 4
  %98 = sext i32 %97 to i64
  %99 = getelementptr inbounds [11 x %struct.unit_names], ptr @un, i64 0, i64 %98
  %100 = getelementptr inbounds nuw %struct.unit_names, ptr %99, i32 0, i32 0
  %101 = load ptr, ptr %100, align 16
  %102 = icmp ne ptr %101, null
  br i1 %102, label %103, label %104

103:                                              ; preds = %96
  br label %138

104:                                              ; preds = %96
  %105 = load ptr, ptr %5, align 8
  %106 = load i32, ptr %9, align 4
  %107 = sext i32 %106 to i64
  %108 = getelementptr inbounds i8, ptr %105, i64 %107
  %109 = load i8, ptr %108, align 1
  %110 = sext i8 %109 to i32
  %111 = icmp sge i32 %110, 48
  br i1 %111, label %112, label %134

112:                                              ; preds = %104
  %113 = load ptr, ptr %5, align 8
  %114 = load i32, ptr %9, align 4
  %115 = sext i32 %114 to i64
  %116 = getelementptr inbounds i8, ptr %113, i64 %115
  %117 = load i8, ptr %116, align 1
  %118 = sext i8 %117 to i32
  %119 = icmp sle i32 %118, 57
  br i1 %119, label %120, label %134

120:                                              ; preds = %112
  %121 = load i64, ptr %10, align 8
  %122 = mul nsw i64 %121, 10
  %123 = load ptr, ptr %5, align 8
  %124 = load i32, ptr %9, align 4
  %125 = sext i32 %124 to i64
  %126 = getelementptr inbounds i8, ptr %123, i64 %125
  %127 = load i8, ptr %126, align 1
  %128 = sext i8 %127 to i32
  %129 = sub nsw i32 %128, 48
  %130 = sext i32 %129 to i64
  %131 = add nsw i64 %122, %130
  store i64 %131, ptr %10, align 8
  %132 = load i32, ptr %11, align 4
  %133 = add nsw i32 %132, 1
  store i32 %133, ptr %11, align 4
  br label %135

134:                                              ; preds = %112, %104
  br label %148

135:                                              ; preds = %120, %49
  %136 = load i32, ptr %9, align 4
  %137 = add nsw i32 %136, 1
  store i32 %137, ptr %9, align 4
  br label %16, !llvm.loop !13

138:                                              ; preds = %103, %32
  %139 = load i32, ptr %11, align 4
  %140 = icmp ne i32 %139, 0
  br i1 %140, label %142, label %141

141:                                              ; preds = %138
  store i32 -1, ptr %4, align 4
  store i32 1, ptr %12, align 4
  br label %152

142:                                              ; preds = %138
  %143 = load i32, ptr %9, align 4
  %144 = sub nsw i32 %143, 1
  %145 = load ptr, ptr %6, align 8
  store i32 %144, ptr %145, align 4
  %146 = load i64, ptr %10, align 8
  %147 = load ptr, ptr %7, align 8
  store i64 %146, ptr %147, align 8
  store i32 0, ptr %4, align 4
  store i32 1, ptr %12, align 4
  br label %152

148:                                              ; preds = %134
  %149 = load i32, ptr %9, align 4
  %150 = sub nsw i32 %149, 1
  %151 = load ptr, ptr %6, align 8
  store i32 %150, ptr %151, align 4
  store i32 -1, ptr %4, align 4
  store i32 1, ptr %12, align 4
  br label %152

152:                                              ; preds = %148, %142, %141
  call void @llvm.lifetime.end.p0(i64 4, ptr %11) #7
  call void @llvm.lifetime.end.p0(i64 8, ptr %10) #7
  call void @llvm.lifetime.end.p0(i64 4, ptr %9) #7
  call void @llvm.lifetime.end.p0(i64 4, ptr %8) #7
  %153 = load i32, ptr %4, align 4
  ret i32 %153
}