; Function Attrs: nounwind uwtable
define internal fastcc range(i32 -1, 1) i32 @_get_delta(ptr noundef %0, ptr noundef nonnull captures(none) %1, ptr noundef nonnull writeonly captures(none) %2) unnamed_addr #0 {
  %4 = load i32, ptr %1, align 4
  %5 = sext i32 %4 to i64
  br label %.outer

.outer:                                           ; preds = %36, %3
  %indvars.iv76.ph = phi i64 [ %indvars.iv.next77, %36 ], [ %5, %3 ]
  %.034.ph = phi i64 [ %39, %36 ], [ 0, %3 ]
  %.0.ph = phi i32 [ %40, %36 ], [ 0, %3 ]
  br label %6

6:                                                ; preds = %.outer, %9
  %indvars.iv76 = phi i64 [ %indvars.iv.next77, %9 ], [ %indvars.iv76.ph, %.outer ]
  %indvars.iv.next77 = add nsw i64 %indvars.iv76, 1
  %7 = getelementptr inbounds i8, ptr %0, i64 %indvars.iv.next77
  %8 = load i8, ptr %7, align 1
  switch i8 %8, label %9 [
    i8 0, label %.critedge.loopexit
    i8 10, label %.critedge.loopexit
  ]

9:                                                ; preds = %6
  %10 = tail call ptr @__ctype_b_loc() #14
  %11 = load ptr, ptr %10, align 8
  %12 = sext i8 %8 to i64
  %13 = getelementptr inbounds i16, ptr %11, i64 %12
  %14 = load i16, ptr %13, align 2
  %15 = and i16 %14, 8192
  %.not46 = icmp eq i16 %15, 0
  br i1 %.not46, label %.preheader.preheader, label %6, !llvm.loop !14

.preheader.preheader:                             ; preds = %9
  %16 = getelementptr inbounds i8, ptr %0, i64 %indvars.iv.next77
  br label %.preheader

17:                                               ; preds = %.preheader
  %indvars.iv.next = add nuw nsw i64 %indvars.iv, 1
  %18 = getelementptr inbounds nuw [11 x %struct.unit_names], ptr @un, i64 0, i64 %indvars.iv.next
  %19 = load ptr, ptr %18, align 16
  %exitcond = icmp eq i64 %indvars.iv.next, 10
  br i1 %exitcond, label %33, label %.preheader, !llvm.loop !15

.preheader:                                       ; preds = %.preheader.preheader, %17
  %indvars.iv = phi i64 [ %indvars.iv.next, %17 ], [ 0, %.preheader.preheader ]
  %20 = phi ptr [ %19, %17 ], [ @.str.18, %.preheader.preheader ]
  %21 = phi ptr [ %18, %17 ], [ @un, %.preheader.preheader ]
  %22 = getelementptr inbounds nuw i8, ptr %21, i64 8
  %23 = load i32, ptr %22, align 8
  %24 = sext i32 %23 to i64
  %25 = tail call i32 @xstrncasecmp(ptr noundef nonnull %16, ptr noundef nonnull %20, i64 noundef %24) #13
  %.not48 = icmp eq i32 %25, 0
  br i1 %.not48, label %26, label %17

26:                                               ; preds = %.preheader
  %27 = trunc nsw i64 %indvars.iv76 to i32
  %28 = getelementptr inbounds nuw i8, ptr %21, i64 12
  %29 = load i32, ptr %28, align 4
  %30 = sext i32 %29 to i64
  %31 = mul nsw i64 %.034.ph, %30
  %32 = add i32 %23, %27
  br label %.critedge

33:                                               ; preds = %17
  %34 = load i8, ptr %16, align 1
  %35 = add i8 %34, -48
  %or.cond = icmp ult i8 %35, 10
  br i1 %or.cond, label %36, label %43

36:                                               ; preds = %33
  %37 = mul nsw i64 %.034.ph, 10
  %38 = zext nneg i8 %35 to i64
  %39 = add nsw i64 %37, %38
  %40 = add nuw nsw i32 %.0.ph, 1
  br label %.outer, !llvm.loop !14

.critedge.loopexit:                               ; preds = %6, %6
  %41 = trunc nsw i64 %indvars.iv76 to i32
  br label %.critedge

.critedge:                                        ; preds = %.critedge.loopexit, %26
  %.137 = phi i32 [ %32, %26 ], [ %41, %.critedge.loopexit ]
  %.135 = phi i64 [ %31, %26 ], [ %.034.ph, %.critedge.loopexit ]
  %.not50 = icmp eq i32 %.0.ph, 0
  br i1 %.not50, label %45, label %42

42:                                               ; preds = %.critedge
  store i32 %.137, ptr %1, align 4
  store i64 %.135, ptr %2, align 8
  br label %45

43:                                               ; preds = %33
  %44 = trunc nsw i64 %indvars.iv76 to i32
  store i32 %44, ptr %1, align 4
  br label %45

45:                                               ; preds = %.critedge, %43, %42
  %.041 = phi i32 [ 0, %42 ], [ -1, %43 ], [ -1, %.critedge ]
  ret i32 %.041
}